target datalayout = "e-m:e-p270:32:32-p271:32:32-p272:64:64-i64:64-i128:128-f80:128-n8:16:32:64-S128"
target triple = "x86_64-pc-linux-gnu"

%"struct.llvm::support::detail::packed_endian_specific_integral" = type { %struct.anon }
%struct.anon = type { [4 x i8] }
%"struct.llvm::support::detail::packed_endian_specific_integral.2" = type { %struct.anon.3 }
%struct.anon.3 = type { [8 x i8] }
%"class.llvm::MemoryBufferRef" = type { %"class.llvm::StringRef", %"class.llvm::StringRef" }
%"class.llvm::StringRef" = type { ptr, i64 }
%"class.llvm::object::Binary" = type { ptr, i32, %"class.llvm::MemoryBufferRef" }
%"struct.llvm::support::detail::packed_endian_specific_integral.16" = type { %struct.anon.17 }
%struct.anon.17 = type { [2 x i8] }
%"struct.llvm::support::detail::packed_endian_specific_integral.18" = type { %struct.anon.19 }
%struct.anon.19 = type { [4 x i8] }
%"class.llvm::object::XCOFFObjectFile" = type { %"class.llvm::object::ObjectFile", ptr, ptr, ptr, ptr, %"struct.llvm::object::XCOFFStringTable" }
%"class.llvm::object::ObjectFile" = type { %"class.llvm::object::SymbolicFile" }
%"class.llvm::object::SymbolicFile" = type { %"class.llvm::object::Binary" }
%"struct.llvm::object::XCOFFStringTable" = type { i32, ptr }
%"struct.llvm::object::XCOFFFileHeader64" = type { %"struct.llvm::support::detail::packed_endian_specific_integral.16", %"struct.llvm::support::detail::packed_endian_specific_integral.16", %"struct.llvm::support::detail::packed_endian_specific_integral.18", %"struct.llvm::support::detail::packed_endian_specific_integral.2", %"struct.llvm::support::detail::packed_endian_specific_integral.16", %"struct.llvm::support::detail::packed_endian_specific_integral.16", %"struct.llvm::support::detail::packed_endian_specific_integral" }
%"struct.llvm::object::XCOFFFileHeader32" = type { %"struct.llvm::support::detail::packed_endian_specific_integral.16", %"struct.llvm::support::detail::packed_endian_specific_integral.16", %"struct.llvm::support::detail::packed_endian_specific_integral.18", %"struct.llvm::support::detail::packed_endian_specific_integral", %"struct.llvm::support::detail::packed_endian_specific_integral.18", %"struct.llvm::support::detail::packed_endian_specific_integral.16", %"struct.llvm::support::detail::packed_endian_specific_integral.16" }

@.str.3 = private unnamed_addr constant [48 x i8] c"Section header outside of section header table.\00", align 1
@.str.4 = private unnamed_addr constant [65 x i8] c"Section header pointer does not point to a valid section header.\00", align 1

; Function Attrs: mustprogress nounwind uwtable
define linkonce_odr hidden noundef zeroext i16 @_ZN4llvm8byteswapItvEET_S1_(i16 noundef zeroext %0) #0 comdat {
  %2 = alloca i16, align 2
  %3 = alloca i16, align 2
  %4 = alloca i16, align 2
  %5 = alloca i16, align 2
  store i16 %0, ptr %2, align 2
  %6 = load i16, ptr %2, align 2
  store i16 %6, ptr %3, align 2
  %7 = load i16, ptr %3, align 2
  %8 = zext i16 %7 to i32
  %9 = shl i32 %8, 8
  %10 = trunc i32 %9 to i16
  store i16 %10, ptr %4, align 2
  %11 = load i16, ptr %3, align 2
  %12 = zext i16 %11 to i32
  %13 = ashr i32 %12, 8
  %14 = trunc i32 %13 to i16
  store i16 %14, ptr %5, align 2
  %15 = load i16, ptr %4, align 2
  %16 = zext i16 %15 to i32
  %17 = load i16, ptr %5, align 2
  %18 = zext i16 %17 to i32
  %19 = or i32 %16, %18
  %20 = trunc i32 %19 to i16
  ret i16 %20
}

; Function Attrs: mustprogress nounwind uwtable
define linkonce_odr hidden noundef zeroext i16 @_ZN4llvm3sys15getSwappedBytesEt(i16 noundef zeroext %0) #0 comdat {
  %2 = alloca i16, align 2
  store i16 %0, ptr %2, align 2
  %3 = load i16, ptr %2, align 2
  %4 = call noundef zeroext i16 @_ZN4llvm8byteswapItvEET_S1_(i16 noundef zeroext %3) #12
  ret i16 %4
}

; Function Attrs: mustprogress nounwind uwtable
define linkonce_odr hidden void @_ZN4llvm3sys13swapByteOrderItEEvRT_(ptr noundef nonnull align 2 dereferenceable(2) %0) #0 comdat {
  %2 = alloca ptr, align 8
  store ptr %0, ptr %2, align 8
  %3 = load ptr, ptr %2, align 8
  %4 = load i16, ptr %3, align 2
  %5 = call noundef zeroext i16 @_ZN4llvm3sys15getSwappedBytesEt(i16 noundef zeroext %4)
  %6 = load ptr, ptr %2, align 8
  store i16 %5, ptr %6, align 2
  ret void
}

; Function Attrs: mustprogress nounwind uwtable
define linkonce_odr hidden noundef zeroext i16 @_ZN4llvm7support6endian9byte_swapItEET_S3_NS_10endiannessE(i16 noundef zeroext %0, i32 noundef %1) #0 comdat {
  %3 = alloca i16, align 2
  %4 = alloca i32, align 4
  store i16 %0, ptr %3, align 2
  store i32 %1, ptr %4, align 4
  %5 = load i32, ptr %4, align 4
  %6 = icmp ne i32 %5, 1
  br i1 %6, label %7, label %8

7:                                                ; preds = %2
  call void @_ZN4llvm3sys13swapByteOrderItEEvRT_(ptr noundef nonnull align 2 dereferenceable(2) %3)
  br label %8

8:                                                ; preds = %7, %2
  %9 = load i16, ptr %3, align 2
  ret i16 %9
}

; Function Attrs: mustprogress nounwind uwtable
define linkonce_odr hidden noundef zeroext i16 @_ZN4llvm7support6endian4readItLm1EEET_PKvNS_10endiannessE(ptr noundef %0, i32 noundef %1) #0 comdat {
  %3 = alloca ptr, align 8
  %4 = alloca i32, align 4
  %5 = alloca i16, align 2
  store ptr %0, ptr %3, align 8
  store i32 %1, ptr %4, align 4
  %6 = load ptr, ptr %3, align 8
  call void @llvm.assume(i1 true) [ "align"(ptr %6, i64 1) ]
  call void @llvm.memcpy.p0.p0.i64(ptr align 2 %5, ptr align 1 %6, i64 2, i1 false)
  %7 = load i16, ptr %5, align 2
  %8 = load i32, ptr %4, align 4
  %9 = call noundef zeroext i16 @_ZN4llvm7support6endian9byte_swapItEET_S3_NS_10endiannessE(i16 noundef zeroext %7, i32 noundef %8)
  ret i16 %9
}

; Function Attrs: mustprogress nounwind uwtable
define linkonce_odr hidden noundef zeroext i16 @_ZN4llvm7support6endian4readItLNS_10endiannessE0ELm1EEET_PKv(ptr noundef %0) #0 comdat {
  %2 = alloca ptr, align 8
  store ptr %0, ptr %2, align 8
  %3 = load ptr, ptr %2, align 8
  %4 = call noundef zeroext i16 @_ZN4llvm7support6endian4readItLm1EEET_PKvNS_10endiannessE(ptr noundef %3, i32 noundef 0)
  ret i16 %4
}

; Function Attrs: mustprogress nounwind uwtable
define linkonce_odr hidden noundef zeroext i16 @_ZNK4llvm7support6detail31packed_endian_specific_integralItLNS_10endiannessE0ELm1ELm1EEcvtEv(ptr noundef nonnull align 1 dereferenceable(2) %0) #0 comdat align 2 {
  %2 = alloca ptr, align 8
  store ptr %0, ptr %2, align 8
  %3 = load ptr, ptr %2, align 8
  %4 = getelementptr inbounds nuw %"struct.llvm::support::detail::packed_endian_specific_integral.16", ptr %3, i32 0, i32 0
  %5 = getelementptr inbounds nuw %struct.anon.17, ptr %4, i32 0, i32 0
  %6 = getelementptr inbounds [2 x i8], ptr %5, i64 0, i64 0
  %7 = call noundef zeroext i16 @_ZN4llvm7support6endian4readItLNS_10endiannessE0ELm1EEET_PKv(ptr noundef %6)
  ret i16 %7
}

; Function Attrs: mustprogress nounwind uwtable
define dso_local noundef ptr @_ZNK4llvm6object15XCOFFObjectFile12fileHeader32Ev(ptr noundef nonnull align 8 dereferenceable(96) %0) #0 align 2 {
  %2 = alloca ptr, align 8
  store ptr %0, ptr %2, align 8
  %3 = load ptr, ptr %2, align 8
  %4 = getelementptr inbounds nuw %"class.llvm::object::XCOFFObjectFile", ptr %3, i32 0, i32 1
  %5 = load ptr, ptr %4, align 8
  ret ptr %5
}

; Function Attrs: mustprogress nounwind uwtable
define dso_local noundef ptr @_ZNK4llvm6object15XCOFFObjectFile12fileHeader64Ev(ptr noundef nonnull align 8 dereferenceable(96) %0) #0 align 2 {
  %2 = alloca ptr, align 8
  store ptr %0, ptr %2, align 8
  %3 = load ptr, ptr %2, align 8
  %4 = getelementptr inbounds nuw %"class.llvm::object::XCOFFObjectFile", ptr %3, i32 0, i32 1
  %5 = load ptr, ptr %4, align 8
  ret ptr %5
}

; Function Attrs: mustprogress nounwind uwtable
define dso_local noundef zeroext i16 @_ZNK4llvm6object15XCOFFObjectFile19getNumberOfSectionsEv(ptr noundef nonnull align 8 dereferenceable(96) %0) #0 align 2 {
  %2 = alloca ptr, align 8
  store ptr %0, ptr %2, align 8
  %3 = load ptr, ptr %2, align 8
  %4 = load ptr, ptr %3, align 8
  %5 = getelementptr inbounds ptr, ptr %4, i64 8
  %6 = load ptr, ptr %5, align 8
  %7 = call noundef zeroext i1 %6(ptr noundef nonnull align 8 dereferenceable(96) %3)
  br i1 %7, label %8, label %11

8:                                                ; preds = %1
  %9 = call noundef ptr @_ZNK4llvm6object15XCOFFObjectFile12fileHeader64Ev(ptr noundef nonnull align 8 dereferenceable(96) %3)
  %10 = getelementptr inbounds nuw %"struct.llvm::object::XCOFFFileHeader64", ptr %9, i32 0, i32 1
  br label %14

11:                                               ; preds = %1
  %12 = call noundef ptr @_ZNK4llvm6object15XCOFFObjectFile12fileHeader32Ev(ptr noundef nonnull align 8 dereferenceable(96) %3)
  %13 = getelementptr inbounds nuw %"struct.llvm::object::XCOFFFileHeader32", ptr %12, i32 0, i32 1
  br label %14

14:                                               ; preds = %11, %8
  %15 = phi ptr [ %10, %8 ], [ %13, %11 ]
  %16 = call noundef zeroext i16 @_ZNK4llvm7support6detail31packed_endian_specific_integralItLNS_10endiannessE0ELm1ELm1EEcvtEv(ptr noundef nonnull align 1 dereferenceable(2) %15)
  ret i16 %16
}

; Function Attrs: mustprogress nounwind uwtable
define dso_local noundef i64 @_ZNK4llvm6object15XCOFFObjectFile20getSectionHeaderSizeEv(ptr noundef nonnull align 8 dereferenceable(96) %0) #0 align 2 {
  %2 = alloca ptr, align 8
  store ptr %0, ptr %2, align 8
  %3 = load ptr, ptr %2, align 8
  %4 = load ptr, ptr %3, align 8
  %5 = getelementptr inbounds ptr, ptr %4, i64 8
  %6 = load ptr, ptr %5, align 8
  %7 = call noundef zeroext i1 %6(ptr noundef nonnull align 8 dereferenceable(96) %3)
  %8 = select i1 %7, i64 72, i64 40
  ret i64 %8
}

; Function Attrs: mustprogress nounwind uwtable
define dso_local void @_ZNK4llvm6object15XCOFFObjectFile19checkSectionAddressEmm(ptr noundef nonnull align 8 dereferenceable(96) %0, i64 noundef %1, i64 noundef %2) #0 align 2 {
  %4 = alloca ptr, align 8
  %5 = alloca i64, align 8
  %6 = alloca i64, align 8
  %7 = alloca i64, align 8
  store ptr %0, ptr %4, align 8
  store i64 %1, ptr %5, align 8
  store i64 %2, ptr %6, align 8
  %8 = load ptr, ptr %4, align 8
  %9 = load i64, ptr %5, align 8
  %10 = load i64, ptr %6, align 8
  %11 = icmp ult i64 %9, %10
  br i1 %11, label %12, label %13

12:                                               ; preds = %3
  call void @_ZN4llvm18report_fatal_errorEPKcb(ptr noundef @.str.3, i1 noundef zeroext true) #14
  unreachable

13:                                               ; preds = %3
  %14 = load i64, ptr %5, align 8
  %15 = load i64, ptr %6, align 8
  %16 = sub i64 %14, %15
  store i64 %16, ptr %7, align 8
  %17 = load i64, ptr %7, align 8
  %18 = call noundef i64 @_ZNK4llvm6object15XCOFFObjectFile20getSectionHeaderSizeEv(ptr noundef nonnull align 8 dereferenceable(96) %8)
  %19 = call noundef zeroext i16 @_ZNK4llvm6object15XCOFFObjectFile19getNumberOfSectionsEv(ptr noundef nonnull align 8 dereferenceable(96) %8)
  %20 = zext i16 %19 to i64
  %21 = mul i64 %18, %20
  %22 = icmp uge i64 %17, %21
  br i1 %22, label %23, label %24

23:                                               ; preds = %13
  call void @_ZN4llvm18report_fatal_errorEPKcb(ptr noundef @.str.3, i1 noundef zeroext true) #14
  unreachable

24:                                               ; preds = %13
  %25 = load i64, ptr %7, align 8
  %26 = call noundef i64 @_ZNK4llvm6object15XCOFFObjectFile20getSectionHeaderSizeEv(ptr noundef nonnull align 8 dereferenceable(96) %8)
  %27 = urem i64 %25, %26
  %28 = icmp ne i64 %27, 0
  br i1 %28, label %29, label %30

29:                                               ; preds = %24
  call void @_ZN4llvm18report_fatal_errorEPKcb(ptr noundef @.str.4, i1 noundef zeroext true) #14
  unreachable

30:                                               ; preds = %24
  ret void
}