; Function Attrs: mustprogress nounwind uwtable
define dso_local void @_ZNK4llvm6object15XCOFFObjectFile19checkSectionAddressEmm(ptr noundef nonnull align 8 dereferenceable(96) %0, i64 noundef %1, i64 noundef %2) local_unnamed_addr #0 align 2 {
  %4 = icmp ult i64 %1, %2
  br i1 %4, label %5, label %6

5:                                                ; preds = %3
  tail call void @_ZN4llvm18report_fatal_errorEPKcb(ptr noundef nonnull @.str.3, i1 noundef zeroext true) #26
  unreachable

6:                                                ; preds = %3
  %7 = sub nuw i64 %1, %2
  %8 = load ptr, ptr %0, align 8
  %9 = getelementptr inbounds i8, ptr %8, i64 64
  %10 = load ptr, ptr %9, align 8
  %11 = tail call noundef zeroext i1 %10(ptr noundef nonnull align 8 dereferenceable(96) %0) #23
  %12 = select i1 %11, i64 72, i64 40
  %13 = load ptr, ptr %0, align 8
  %14 = getelementptr inbounds i8, ptr %13, i64 64
  %15 = load ptr, ptr %14, align 8
  %16 = tail call noundef zeroext i1 %15(ptr noundef nonnull align 8 dereferenceable(96) %0) #23
  %17 = getelementptr inbounds nuw i8, ptr %0, i64 48
  %18 = load ptr, ptr %17, align 8
  %19 = getelementptr inbounds nuw i8, ptr %18, i64 2
  call void @llvm.assume(i1 true) [ "align"(ptr %19, i64 1) ]
  %.0.copyload.i.i.i.i = load i16, ptr %19, align 1
  %rev.i.i.i.i.i.i.i.i = tail call noundef i16 @llvm.bswap.i16(i16 %.0.copyload.i.i.i.i)
  %20 = zext i16 %rev.i.i.i.i.i.i.i.i to i64
  %21 = mul nuw nsw i64 %12, %20
  %.not = icmp ult i64 %7, %21
  br i1 %.not, label %23, label %22

22:                                               ; preds = %6
  tail call void @_ZN4llvm18report_fatal_errorEPKcb(ptr noundef nonnull @.str.3, i1 noundef zeroext true) #26
  unreachable

23:                                               ; preds = %6
  %24 = load ptr, ptr %0, align 8
  %25 = getelementptr inbounds i8, ptr %24, i64 64
  %26 = load ptr, ptr %25, align 8
  %27 = tail call noundef zeroext i1 %26(ptr noundef nonnull align 8 dereferenceable(96) %0) #23
  %.lhs.trunc = trunc i64 %7 to i32
  %.rhs.trunc = select i1 %27, i32 72, i32 40
  %28 = urem i32 %.lhs.trunc, %.rhs.trunc
  %.not8 = icmp eq i32 %28, 0
  br i1 %.not8, label %30, label %29

29:                                               ; preds = %23
  tail call void @_ZN4llvm18report_fatal_errorEPKcb(ptr noundef nonnull @.str.4, i1 noundef zeroext true) #26
  unreachable

30:                                               ; preds = %23
  ret void
}